target datalayout = "e-m:e-p270:32:32-p271:32:32-p272:64:64-i64:64-i128:128-f80:128-n8:16:32:64-S128"
target triple = "x86_64-pc-linux-gnu"

%struct.PCF_FaceRec_ = type { %struct.FT_FaceRec_, %struct.FT_StreamRec_, ptr, ptr, ptr, %struct.PCF_TocRec_, %struct.PCF_AccelRec_, i32, ptr, i64, ptr, %struct.PCF_EncRec_, i64 }
%struct.FT_FaceRec_ = type { i64, i64, i64, i64, i64, ptr, ptr, i32, ptr, i32, ptr, %struct.FT_Generic_, %struct.FT_BBox_, i16, i16, i16, i16, i16, i16, i16, i16, ptr, ptr, ptr, ptr, ptr, ptr, %struct.FT_ListRec_, %struct.FT_Generic_, ptr, ptr }
%struct.FT_BBox_ = type { i64, i64, i64, i64 }
%struct.FT_ListRec_ = type { ptr, ptr }
%struct.FT_Generic_ = type { ptr, ptr }
%struct.FT_StreamRec_ = type { ptr, i64, i64, %union.FT_StreamDesc_, %union.FT_StreamDesc_, ptr, ptr, ptr, ptr, ptr }
%union.FT_StreamDesc_ = type { i64 }
%struct.PCF_TocRec_ = type { i64, i64, ptr }
%struct.PCF_AccelRec_ = type { i8, i8, i8, i8, i8, i8, i8, i64, i64, i64, %struct.PCF_MetricRec_, %struct.PCF_MetricRec_, %struct.PCF_MetricRec_, %struct.PCF_MetricRec_ }
%struct.PCF_MetricRec_ = type { i16, i16, i16, i16, i16, i16, i64 }
%struct.PCF_EncRec_ = type { i16, i16, i16, i16, i16, ptr }
%struct.PCF_PropertyRec_ = type { ptr, i8, %union.anon }
%union.anon = type { ptr }

; Function Attrs: nounwind uwtable
define internal ptr @pcf_find_property(ptr noundef %0, ptr noundef %1) #0 {
  %3 = alloca ptr, align 8
  %4 = alloca ptr, align 8
  %5 = alloca ptr, align 8
  %6 = alloca ptr, align 8
  %7 = alloca i8, align 1
  %8 = alloca i32, align 4
  store ptr %0, ptr %4, align 8
  store ptr %1, ptr %5, align 8
  %9 = load ptr, ptr %4, align 8
  %10 = getelementptr inbounds %struct.PCF_FaceRec_, ptr %9, i32 0, i32 8
  %11 = load ptr, ptr %10, align 8
  store ptr %11, ptr %6, align 8
  store i8 0, ptr %7, align 1
  store i32 0, ptr %8, align 4
  br label %12

12:                                               ; preds = %36, %2
  %13 = load i32, ptr %8, align 4
  %14 = load ptr, ptr %4, align 8
  %15 = getelementptr inbounds %struct.PCF_FaceRec_, ptr %14, i32 0, i32 7
  %16 = load i32, ptr %15, align 8
  %17 = icmp slt i32 %13, %16
  br i1 %17, label %18, label %22

18:                                               ; preds = %12
  %19 = load i8, ptr %7, align 1
  %20 = icmp ne i8 %19, 0
  %21 = xor i1 %20, true
  br label %22

22:                                               ; preds = %18, %12
  %23 = phi i1 [ false, %12 ], [ %21, %18 ]
  br i1 %23, label %24, label %39

24:                                               ; preds = %22
  %25 = load ptr, ptr %6, align 8
  %26 = load i32, ptr %8, align 4
  %27 = sext i32 %26 to i64
  %28 = getelementptr inbounds %struct.PCF_PropertyRec_, ptr %25, i64 %27
  %29 = getelementptr inbounds %struct.PCF_PropertyRec_, ptr %28, i32 0, i32 0
  %30 = load ptr, ptr %29, align 8
  %31 = load ptr, ptr %5, align 8
  %32 = call i32 @strcmp(ptr noundef %30, ptr noundef %31) #6
  %33 = icmp ne i32 %32, 0
  br i1 %33, label %35, label %34

34:                                               ; preds = %24
  store i8 1, ptr %7, align 1
  br label %35

35:                                               ; preds = %34, %24
  br label %36

36:                                               ; preds = %35
  %37 = load i32, ptr %8, align 4
  %38 = add nsw i32 %37, 1
  store i32 %38, ptr %8, align 4
  br label %12, !llvm.loop !6

39:                                               ; preds = %22
  %40 = load i8, ptr %7, align 1
  %41 = icmp ne i8 %40, 0
  br i1 %41, label %42, label %48

42:                                               ; preds = %39
  %43 = load ptr, ptr %6, align 8
  %44 = load i32, ptr %8, align 4
  %45 = sext i32 %44 to i64
  %46 = getelementptr inbounds %struct.PCF_PropertyRec_, ptr %43, i64 %45
  %47 = getelementptr inbounds %struct.PCF_PropertyRec_, ptr %46, i64 -1
  store ptr %47, ptr %3, align 8
  br label %49

48:                                               ; preds = %39
  store ptr null, ptr %3, align 8
  br label %49

49:                                               ; preds = %48, %42
  %50 = load ptr, ptr %3, align 8
  ret ptr %50
}