; Function Attrs: nofree nounwind memory(read, inaccessiblemem: none) uwtable
define internal fastcc ptr @pcf_find_property(ptr nocapture noundef readonly %0, ptr nocapture noundef readonly %1) unnamed_addr #5 {
  %3 = getelementptr inbounds i8, ptr %0, i64 512
  %4 = load ptr, ptr %3, align 8
  %5 = getelementptr inbounds i8, ptr %0, i64 504
  %6 = load i32, ptr %5, align 8
  %7 = icmp sgt i32 %6, 0
  br i1 %7, label %.lr.ph.preheader, label %._crit_edge.thread

.lr.ph.preheader:                                 ; preds = %2
  %8 = zext nneg i32 %6 to i64
  br label %.lr.ph

.lr.ph:                                           ; preds = %.lr.ph.preheader, %.lr.ph
  %indvars.iv = phi i64 [ 0, %.lr.ph.preheader ], [ %indvars.iv.next, %.lr.ph ]
  %9 = getelementptr inbounds %struct.PCF_PropertyRec_, ptr %4, i64 %indvars.iv
  %10 = load ptr, ptr %9, align 8
  %11 = tail call i32 @strcmp(ptr noundef nonnull dereferenceable(1) %10, ptr noundef nonnull dereferenceable(1) %1) #16
  %.fr = freeze i32 %11
  %.not13 = icmp ne i32 %.fr, 0
  %indvars.iv.next = add nuw nsw i64 %indvars.iv, 1
  %12 = icmp ult i64 %indvars.iv.next, %8
  %13 = and i1 %12, %.not13
  br i1 %13, label %.lr.ph, label %._crit_edge, !llvm.loop !10

._crit_edge:                                      ; preds = %.lr.ph
  %14 = and i64 %indvars.iv.next, 4294967295
  %15 = getelementptr inbounds %struct.PCF_PropertyRec_, ptr %4, i64 %14
  %16 = getelementptr inbounds i8, ptr %15, i64 -24
  br i1 %.not13, label %._crit_edge.thread, label %17

._crit_edge.thread:                               ; preds = %2, %._crit_edge
  br label %17

17:                                               ; preds = %._crit_edge, %._crit_edge.thread
  %18 = phi ptr [ null, %._crit_edge.thread ], [ %16, %._crit_edge ]
  ret ptr %18
}